target datalayout = "e-m:e-p270:32:32-p271:32:32-p272:64:64-i64:64-i128:128-f80:128-n8:16:32:64-S128"
target triple = "x86_64-unknown-linux-gnu"

%"class.hermes::vm::JSWeakMapImplBase" = type <{ %"class.hermes::vm::JSObject", [4 x i8], %"class.llvh::DenseMap.172", %"class.hermes::vm::GCPointer.175", i32, i32, i8, [3 x i8] }>
%"class.hermes::vm::JSObject" = type { %"class.hermes::vm::GCCell", %"struct.hermes::vm::ObjectFlags", %"class.hermes::vm::GCPointer", %"class.hermes::vm::GCPointer.170", %"class.hermes::vm::GCPointer.171" }
%"class.hermes::vm::GCCell" = type { %union.anon.1 }
%union.anon.1 = type { %"class.hermes::vm::KindAndSize" }
%"class.hermes::vm::KindAndSize" = type { i32 }
%"struct.hermes::vm::ObjectFlags" = type { i32 }
%"class.hermes::vm::GCPointer" = type { %"class.hermes::vm::GCPointerBase" }
%"class.hermes::vm::GCPointerBase" = type { %"class.hermes::vm::CompressedPointer" }
%"class.hermes::vm::CompressedPointer" = type { %"class.hermes::vm::BasedPointer" }
%"class.hermes::vm::BasedPointer" = type { i32 }
%"class.hermes::vm::GCPointer.170" = type { %"class.hermes::vm::GCPointerBase" }
%"class.hermes::vm::GCPointer.171" = type { %"class.hermes::vm::GCPointerBase" }
%"class.llvh::DenseMap.172" = type <{ ptr, i32, i32, i32, [4 x i8] }>
%"class.hermes::vm::GCPointer.175" = type { %"class.hermes::vm::GCPointerBase" }

; Function Attrs: mustprogress nounwind uwtable
define linkonce_odr hidden noundef i32 @_ZNK4llvh8DenseMapIN6hermes2vm6detail10WeakRefKeyEjNS3_11WeakRefInfoENS_6detail12DenseMapPairIS4_jEEE13getNumEntriesEv(ptr noundef nonnull align 8 dereferenceable(20) %this) #0 comdat align 2 {
entry:
  %this.addr = alloca ptr, align 8
  store ptr %this, ptr %this.addr, align 8
  %this1 = load ptr, ptr %this.addr, align 8
  %NumEntries = getelementptr inbounds %"class.llvh::DenseMap.172", ptr %this1, i32 0, i32 1
  %0 = load i32, ptr %NumEntries, align 8
  ret i32 %0
}

; Function Attrs: mustprogress nounwind uwtable
define linkonce_odr hidden noundef i32 @_ZNK4llvh12DenseMapBaseINS_8DenseMapIN6hermes2vm6detail10WeakRefKeyEjNS4_11WeakRefInfoENS_6detail12DenseMapPairIS5_jEEEES5_jS6_S9_E13getNumEntriesEv(ptr noundef nonnull align 1 dereferenceable(1) %this) #0 comdat align 2 {
entry:
  %this.addr = alloca ptr, align 8
  store ptr %this, ptr %this.addr, align 8
  %this1 = load ptr, ptr %this.addr, align 8
  %call = call noundef i32 @_ZNK4llvh8DenseMapIN6hermes2vm6detail10WeakRefKeyEjNS3_11WeakRefInfoENS_6detail12DenseMapPairIS4_jEEE13getNumEntriesEv(ptr noundef nonnull align 8 dereferenceable(20) %this1)
  ret i32 %call
}

; Function Attrs: mustprogress nounwind uwtable
define linkonce_odr hidden noundef i32 @_ZNK4llvh12DenseMapBaseINS_8DenseMapIN6hermes2vm6detail10WeakRefKeyEjNS4_11WeakRefInfoENS_6detail12DenseMapPairIS5_jEEEES5_jS6_S9_E4sizeEv(ptr noundef nonnull align 1 dereferenceable(1) %this) #0 comdat align 2 {
entry:
  %this.addr = alloca ptr, align 8
  store ptr %this, ptr %this.addr, align 8
  %this1 = load ptr, ptr %this.addr, align 8
  %call = call noundef i32 @_ZNK4llvh12DenseMapBaseINS_8DenseMapIN6hermes2vm6detail10WeakRefKeyEjNS4_11WeakRefInfoENS_6detail12DenseMapPairIS5_jEEEES5_jS6_S9_E13getNumEntriesEv(ptr noundef nonnull align 1 dereferenceable(1) %this1)
  ret i32 %call
}

; Function Attrs: mustprogress nounwind uwtable
define hidden noundef i32 @_ZN6hermes2vm17JSWeakMapImplBase24debugFreeSlotsAndGetSizeERNS0_7RuntimeEPS1_(ptr noundef nonnull align 8 dereferenceable(9832) %runtime, ptr noundef %self) #0 align 2 {
entry:
  %runtime.addr = alloca ptr, align 8
  %self.addr = alloca ptr, align 8
  store ptr %runtime, ptr %runtime.addr, align 8
  store ptr %self, ptr %self.addr, align 8
  %0 = load ptr, ptr %self.addr, align 8
  %hasFreeableSlots_ = getelementptr inbounds %"class.hermes::vm::JSWeakMapImplBase", ptr %0, i32 0, i32 6
  %1 = load i8, ptr %hasFreeableSlots_, align 4
  %tobool = trunc i8 %1 to i1
  br i1 %tobool, label %if.then, label %if.end

if.then:                                          ; preds = %entry
  %2 = load ptr, ptr %self.addr, align 8
  %3 = load ptr, ptr %runtime.addr, align 8
  call void @_ZN6hermes2vm17JSWeakMapImplBase22findAndDeleteFreeSlotsERNS0_7RuntimeE(ptr noundef nonnull align 8 dereferenceable(61) %2, ptr noundef nonnull align 8 dereferenceable(9832) %3)
  br label %if.end

if.end:                                           ; preds = %if.then, %entry
  %4 = load ptr, ptr %self.addr, align 8
  %map_ = getelementptr inbounds %"class.hermes::vm::JSWeakMapImplBase", ptr %4, i32 0, i32 2
  %call = call noundef i32 @_ZNK4llvh12DenseMapBaseINS_8DenseMapIN6hermes2vm6detail10WeakRefKeyEjNS4_11WeakRefInfoENS_6detail12DenseMapPairIS5_jEEEES5_jS6_S9_E4sizeEv(ptr noundef nonnull align 1 dereferenceable(1) %map_)
  ret i32 %call
}