; Function Attrs: mustprogress nounwind uwtable
define hidden noundef i32 @_ZN6hermes2vm17JSWeakMapImplBase24debugFreeSlotsAndGetSizeERNS0_7RuntimeEPS1_(ptr noundef nonnull align 8 dereferenceable(9832) %runtime, ptr noundef captures(none) %self) local_unnamed_addr #0 align 2 {
entry:
  %hasFreeableSlots_ = getelementptr inbounds nuw i8, ptr %self, i64 60
  %0 = load i8, ptr %hasFreeableSlots_, align 4
  %tobool = trunc i8 %0 to i1
  br i1 %tobool, label %if.then, label %if.end

if.then:                                          ; preds = %entry
  tail call void @_ZN6hermes2vm17JSWeakMapImplBase22findAndDeleteFreeSlotsERNS0_7RuntimeE(ptr noundef nonnull align 8 dereferenceable(61) %self, ptr noundef nonnull align 8 dereferenceable(9832) %runtime)
  br label %if.end

if.end:                                           ; preds = %if.then, %entry
  %NumEntries.i.i.i = getelementptr inbounds nuw i8, ptr %self, i64 32
  %1 = load i32, ptr %NumEntries.i.i.i, align 8
  ret i32 %1
}